target datalayout = "e-m:e-p270:32:32-p271:32:32-p272:64:64-i64:64-i128:128-f80:128-n8:16:32:64-S128"
target triple = "x86_64-pc-linux-gnu"

%class.MallocMemorySnapshot = type { [28 x %class.MallocMemory], %class.MemoryCounter }
%class.MallocMemory = type { %class.MemoryCounter, %class.MemoryCounter }
%class.MemoryCounter = type { i64, i64, i64, i64 }
%"struct.MallocHeader::FreeInfo" = type { i64, i8, i32 }
%class.NativeCallStack = type { [4 x ptr] }
%"struct.Atomic::PlatformAdd" = type { i8 }
%class.MallocSite = type { %class.AllocationSite.base, %class.MemoryCounter }
%class.AllocationSite.base = type <{ %class.NativeCallStack, i8 }>

@_ZN19MallocMemorySummary9_snapshotE = hidden global %class.MallocMemorySnapshot zeroinitializer, align 8
@_ZN10MemTracker15_tracking_levelE = external global i32, align 4

; Function Attrs: mustprogress nounwind uwtable
define linkonce_odr hidden noundef i64 @_ZNK6Atomic11PlatformAddILm8EE14fetch_then_addImmEET_PVS3_T0_19atomic_memory_order(ptr noundef nonnull align 1 dereferenceable(1) %0, ptr noundef %1, i64 noundef %2, i32 noundef %3) #1 comdat align 2 {
  %5 = alloca ptr, align 8
  %6 = alloca ptr, align 8
  %7 = alloca i64, align 8
  %8 = alloca i32, align 4
  %9 = alloca i64, align 8
  store ptr %0, ptr %5, align 8
  store ptr %1, ptr %6, align 8
  store i64 %2, ptr %7, align 8
  store i32 %3, ptr %8, align 4
  %10 = load i64, ptr %7, align 8
  %11 = load ptr, ptr %6, align 8
  %12 = call i64 asm sideeffect "lock xaddq $0,($2)", "=r,0,r,~{cc},~{memory},~{dirflag},~{fpsr},~{flags}"(i64 %10, ptr %11) #8, !srcloc !11
  store i64 %12, ptr %9, align 8
  %13 = load i64, ptr %9, align 8
  ret i64 %13
}

; Function Attrs: mustprogress nounwind uwtable
define linkonce_odr hidden noundef i64 @_ZNK6Atomic11PlatformAddILm8EE14add_then_fetchImmEET_PVS3_T0_19atomic_memory_order(ptr noundef nonnull align 1 dereferenceable(1) %0, ptr noundef %1, i64 noundef %2, i32 noundef %3) #1 comdat align 2 {
  %5 = alloca ptr, align 8
  %6 = alloca ptr, align 8
  %7 = alloca i64, align 8
  %8 = alloca i32, align 4
  store ptr %0, ptr %5, align 8
  store ptr %1, ptr %6, align 8
  store i64 %2, ptr %7, align 8
  store i32 %3, ptr %8, align 4
  %9 = load ptr, ptr %5, align 8
  %10 = load ptr, ptr %6, align 8
  %11 = load i64, ptr %7, align 8
  %12 = load i32, ptr %8, align 4
  %13 = call noundef i64 @_ZNK6Atomic11PlatformAddILm8EE14fetch_then_addImmEET_PVS3_T0_19atomic_memory_order(ptr noundef nonnull align 1 dereferenceable(1) %9, ptr noundef %10, i64 noundef %11, i32 noundef %12)
  %14 = load i64, ptr %7, align 8
  %15 = add i64 %13, %14
  ret i64 %15
}

; Function Attrs: mustprogress nounwind uwtable
define linkonce_odr hidden noundef i64 @_ZN6Atomic7AddImplImmvE14add_then_fetchEPVmm19atomic_memory_order(ptr noundef %0, i64 noundef %1, i32 noundef %2) #1 comdat align 2 {
  %4 = alloca ptr, align 8
  %5 = alloca i64, align 8
  %6 = alloca i32, align 4
  %7 = alloca i64, align 8
  %8 = alloca %"struct.Atomic::PlatformAdd", align 1
  store ptr %0, ptr %4, align 8
  store i64 %1, ptr %5, align 8
  store i32 %2, ptr %6, align 4
  %9 = load i64, ptr %5, align 8
  store i64 %9, ptr %7, align 8
  %10 = load ptr, ptr %4, align 8
  %11 = load i64, ptr %7, align 8
  %12 = load i32, ptr %6, align 4
  %13 = call noundef i64 @_ZNK6Atomic11PlatformAddILm8EE14add_then_fetchImmEET_PVS3_T0_19atomic_memory_order(ptr noundef nonnull align 1 dereferenceable(1) %8, ptr noundef %10, i64 noundef %11, i32 noundef %12)
  ret i64 %13
}

; Function Attrs: mustprogress nounwind uwtable
define linkonce_odr hidden noundef i64 @_ZN6Atomic3addImmEET_PVS1_T0_19atomic_memory_order(ptr noundef %0, i64 noundef %1, i32 noundef %2) #1 comdat align 2 {
  %4 = alloca ptr, align 8
  %5 = alloca i64, align 8
  %6 = alloca i32, align 4
  store ptr %0, ptr %4, align 8
  store i64 %1, ptr %5, align 8
  store i32 %2, ptr %6, align 4
  %7 = load ptr, ptr %4, align 8
  %8 = load i64, ptr %5, align 8
  %9 = load i32, ptr %6, align 4
  %10 = call noundef i64 @_ZN6Atomic7AddImplImmvE14add_then_fetchEPVmm19atomic_memory_order(ptr noundef %7, i64 noundef %8, i32 noundef %9)
  ret i64 %10
}

; Function Attrs: mustprogress nounwind uwtable
define linkonce_odr hidden noundef i64 @_ZN6Atomic3subImmEET_PVS1_T0_19atomic_memory_order(ptr noundef %0, i64 noundef %1, i32 noundef %2) #1 comdat align 2 {
  %4 = alloca ptr, align 8
  %5 = alloca i64, align 8
  %6 = alloca i32, align 4
  %7 = alloca i64, align 8
  store ptr %0, ptr %4, align 8
  store i64 %1, ptr %5, align 8
  store i32 %2, ptr %6, align 4
  %8 = load i64, ptr %5, align 8
  store i64 %8, ptr %7, align 8
  %9 = load ptr, ptr %4, align 8
  %10 = load i64, ptr %7, align 8
  %11 = sub i64 0, %10
  %12 = load i32, ptr %6, align 4
  %13 = call noundef i64 @_ZN6Atomic3addImmEET_PVS1_T0_19atomic_memory_order(ptr noundef %9, i64 noundef %11, i32 noundef %12)
  ret i64 %13
}

; Function Attrs: mustprogress nounwind uwtable
define linkonce_odr hidden void @_ZN6Atomic3decImEEvPVT_19atomic_memory_order(ptr noundef %0, i32 noundef %1) #1 comdat align 2 {
  %3 = alloca ptr, align 8
  %4 = alloca i32, align 4
  store ptr %0, ptr %3, align 8
  store i32 %1, ptr %4, align 4
  %5 = load ptr, ptr %3, align 8
  %6 = load i32, ptr %4, align 4
  %7 = call noundef i64 @_ZN6Atomic3addImmEET_PVS1_T0_19atomic_memory_order(ptr noundef %5, i64 noundef -1, i32 noundef %6)
  ret void
}

; Function Attrs: mustprogress nounwind uwtable
define linkonce_odr hidden noundef i32 @_ZN7NMTUtil13flag_to_indexE8MEMFLAGS(i8 noundef zeroext %0) #1 comdat align 2 {
  %2 = alloca i8, align 1
  store i8 %0, ptr %2, align 1
  %3 = load i8, ptr %2, align 1
  %4 = zext i8 %3 to i32
  ret i32 %4
}

; Function Attrs: mustprogress nounwind uwtable
define linkonce_odr hidden void @_ZN10MallocSite10deallocateEm(ptr noundef nonnull align 8 dereferenceable(72) %0, i64 noundef %1) #1 comdat align 2 {
  %3 = alloca ptr, align 8
  %4 = alloca i64, align 8
  store ptr %0, ptr %3, align 8
  store i64 %1, ptr %4, align 8
  %5 = load ptr, ptr %3, align 8
  %6 = getelementptr inbounds %class.MallocSite, ptr %5, i32 0, i32 1
  %7 = load i64, ptr %4, align 8
  call void @_ZN13MemoryCounter10deallocateEm(ptr noundef nonnull align 8 dereferenceable(32) %6, i64 noundef %7)
  ret void
}

; Function Attrs: mustprogress nounwind uwtable
define linkonce_odr hidden void @_ZN13MemoryCounter10deallocateEm(ptr noundef nonnull align 8 dereferenceable(32) %0, i64 noundef %1) #1 comdat align 2 {
  %3 = alloca ptr, align 8
  %4 = alloca i64, align 8
  store ptr %0, ptr %3, align 8
  store i64 %1, ptr %4, align 8
  %5 = load ptr, ptr %3, align 8
  %6 = getelementptr inbounds %class.MemoryCounter, ptr %5, i32 0, i32 0
  call void @_ZN6Atomic3decImEEvPVT_19atomic_memory_order(ptr noundef %6, i32 noundef 0)
  %7 = load i64, ptr %4, align 8
  %8 = icmp ugt i64 %7, 0
  br i1 %8, label %9, label %13

9:                                                ; preds = %2
  %10 = getelementptr inbounds %class.MemoryCounter, ptr %5, i32 0, i32 1
  %11 = load i64, ptr %4, align 8
  %12 = call noundef i64 @_ZN6Atomic3subImmEET_PVS1_T0_19atomic_memory_order(ptr noundef %10, i64 noundef %11, i32 noundef 0)
  br label %13

13:                                               ; preds = %9, %2
  ret void
}

; Function Attrs: mustprogress nounwind uwtable
define linkonce_odr hidden void @_ZN12MallocMemory11record_freeEm(ptr noundef nonnull align 8 dereferenceable(64) %0, i64 noundef %1) #1 comdat align 2 {
  %3 = alloca ptr, align 8
  %4 = alloca i64, align 8
  store ptr %0, ptr %3, align 8
  store i64 %1, ptr %4, align 8
  %5 = load ptr, ptr %3, align 8
  %6 = getelementptr inbounds %class.MallocMemory, ptr %5, i32 0, i32 0
  %7 = load i64, ptr %4, align 8
  call void @_ZN13MemoryCounter10deallocateEm(ptr noundef nonnull align 8 dereferenceable(32) %6, i64 noundef %7)
  ret void
}

; Function Attrs: mustprogress nounwind uwtable
define linkonce_odr hidden noundef ptr @_ZN20MallocMemorySnapshot7by_typeE8MEMFLAGS(ptr noundef nonnull align 8 dereferenceable(1824) %0, i8 noundef zeroext %1) #1 comdat align 2 {
  %3 = alloca ptr, align 8
  %4 = alloca i8, align 1
  %5 = alloca i32, align 4
  store ptr %0, ptr %3, align 8
  store i8 %1, ptr %4, align 1
  %6 = load ptr, ptr %3, align 8
  %7 = load i8, ptr %4, align 1
  %8 = call noundef i32 @_ZN7NMTUtil13flag_to_indexE8MEMFLAGS(i8 noundef zeroext %7)
  store i32 %8, ptr %5, align 4
  %9 = getelementptr inbounds %class.MallocMemorySnapshot, ptr %6, i32 0, i32 0
  %10 = load i32, ptr %5, align 4
  %11 = sext i32 %10 to i64
  %12 = getelementptr inbounds [28 x %class.MallocMemory], ptr %9, i64 0, i64 %11
  ret ptr %12
}

; Function Attrs: mustprogress nounwind uwtable
define linkonce_odr hidden noundef ptr @_ZN19MallocMemorySummary11as_snapshotEv() #1 comdat align 2 {
  ret ptr @_ZN19MallocMemorySummary9_snapshotE
}

; Function Attrs: mustprogress nounwind uwtable
define linkonce_odr hidden noundef zeroext i1 @_ZN15MallocSiteTable15deallocation_atEmj(i64 noundef %0, i32 noundef %1) #1 comdat align 2 {
  %3 = alloca i1, align 1
  %4 = alloca i64, align 8
  %5 = alloca i32, align 4
  %6 = alloca ptr, align 8
  store i64 %0, ptr %4, align 8
  store i32 %1, ptr %5, align 4
  %7 = load i32, ptr %5, align 4
  %8 = call noundef ptr @_ZN15MallocSiteTable11malloc_siteEj(i32 noundef %7)
  store ptr %8, ptr %6, align 8
  %9 = load ptr, ptr %6, align 8
  %10 = icmp ne ptr %9, null
  br i1 %10, label %11, label %14

11:                                               ; preds = %2
  %12 = load ptr, ptr %6, align 8
  %13 = load i64, ptr %4, align 8
  call void @_ZN10MallocSite10deallocateEm(ptr noundef nonnull align 8 dereferenceable(72) %12, i64 noundef %13)
  store i1 true, ptr %3, align 1
  br label %15

14:                                               ; preds = %2
  store i1 false, ptr %3, align 1
  br label %15

15:                                               ; preds = %14, %11
  %16 = load i1, ptr %3, align 1
  ret i1 %16
}

; Function Attrs: mustprogress nounwind uwtable
define linkonce_odr hidden noundef i32 @_ZN10MemTracker14tracking_levelEv() #1 comdat align 2 {
  %1 = load i32, ptr @_ZN10MemTracker15_tracking_levelE, align 4
  ret i32 %1
}

; Function Attrs: mustprogress nounwind uwtable
define linkonce_odr hidden void @_ZN19MallocMemorySummary11record_freeEm8MEMFLAGS(i64 noundef %0, i8 noundef zeroext %1) #1 comdat align 2 {
  %3 = alloca i64, align 8
  %4 = alloca i8, align 1
  store i64 %0, ptr %3, align 8
  store i8 %1, ptr %4, align 1
  %5 = call noundef ptr @_ZN19MallocMemorySummary11as_snapshotEv()
  %6 = load i8, ptr %4, align 1
  %7 = call noundef ptr @_ZN20MallocMemorySnapshot7by_typeE8MEMFLAGS(ptr noundef nonnull align 8 dereferenceable(1824) %5, i8 noundef zeroext %6)
  %8 = load i64, ptr %3, align 8
  call void @_ZN12MallocMemory11record_freeEm(ptr noundef nonnull align 8 dereferenceable(64) %7, i64 noundef %8)
  %9 = call noundef ptr @_ZN19MallocMemorySummary11as_snapshotEv()
  %10 = getelementptr inbounds %class.MallocMemorySnapshot, ptr %9, i32 0, i32 1
  %11 = load i64, ptr %3, align 8
  call void @_ZN13MemoryCounter10deallocateEm(ptr noundef nonnull align 8 dereferenceable(32) %10, i64 noundef %11)
  ret void
}

; Function Attrs: mustprogress nounwind uwtable
define hidden void @_ZN13MallocTracker9deaccountEN12MallocHeader8FreeInfoE(i64 %0, i64 %1) #1 align 2 {
  %3 = alloca %"struct.MallocHeader::FreeInfo", align 8
  %4 = getelementptr inbounds { i64, i64 }, ptr %3, i32 0, i32 0
  store i64 %0, ptr %4, align 8
  %5 = getelementptr inbounds { i64, i64 }, ptr %3, i32 0, i32 1
  store i64 %1, ptr %5, align 8
  %6 = getelementptr inbounds %"struct.MallocHeader::FreeInfo", ptr %3, i32 0, i32 0
  %7 = load i64, ptr %6, align 8
  %8 = getelementptr inbounds %"struct.MallocHeader::FreeInfo", ptr %3, i32 0, i32 1
  %9 = load i8, ptr %8, align 8
  call void @_ZN19MallocMemorySummary11record_freeEm8MEMFLAGS(i64 noundef %7, i8 noundef zeroext %9)
  %10 = call noundef i32 @_ZN10MemTracker14tracking_levelEv()
  %11 = icmp eq i32 %10, 3
  br i1 %11, label %12, label %18

12:                                               ; preds = %2
  %13 = getelementptr inbounds %"struct.MallocHeader::FreeInfo", ptr %3, i32 0, i32 0
  %14 = load i64, ptr %13, align 8
  %15 = getelementptr inbounds %"struct.MallocHeader::FreeInfo", ptr %3, i32 0, i32 2
  %16 = load i32, ptr %15, align 4
  %17 = call noundef zeroext i1 @_ZN15MallocSiteTable15deallocation_atEmj(i64 noundef %14, i32 noundef %16)
  br label %18

18:                                               ; preds = %12, %2
  ret void
}