; Function Attrs: mustprogress nounwind uwtable
define hidden void @_ZN13MallocTracker9deaccountEN12MallocHeader8FreeInfoE(i64 %0, i64 %1) local_unnamed_addr #0 align 2 {
  %3 = and i64 %1, 255
  %4 = getelementptr inbounds [28 x %class.MallocMemory], ptr @_ZN19MallocMemorySummary9_snapshotE, i64 0, i64 %3
  %5 = tail call noundef i64 asm sideeffect "lock xaddq $0,($2)", "=r,0,r,~{cc},~{memory},~{dirflag},~{fpsr},~{flags}"(i64 -1, ptr nonnull %4) #10, !srcloc !11
  %.not.i.i.i = icmp eq i64 %0, 0
  br i1 %.not.i.i.i, label %_ZN12MallocMemory11record_freeEm.exit.thread.i, label %7

_ZN12MallocMemory11record_freeEm.exit.thread.i:   ; preds = %2
  %6 = tail call noundef i64 asm sideeffect "lock xaddq $0,($2)", "=r,0,r,~{cc},~{memory},~{dirflag},~{fpsr},~{flags}"(i64 -1, ptr nonnull getelementptr inbounds (i8, ptr @_ZN19MallocMemorySummary9_snapshotE, i64 1792)) #10, !srcloc !11
  br label %_ZN19MallocMemorySummary11record_freeEm8MEMFLAGS.exit

7:                                                ; preds = %2
  %8 = getelementptr inbounds i8, ptr %4, i64 8
  %9 = sub i64 0, %0
  %10 = tail call noundef i64 asm sideeffect "lock xaddq $0,($2)", "=r,0,r,~{cc},~{memory},~{dirflag},~{fpsr},~{flags}"(i64 %9, ptr nonnull %8) #10, !srcloc !11
  %11 = tail call noundef i64 asm sideeffect "lock xaddq $0,($2)", "=r,0,r,~{cc},~{memory},~{dirflag},~{fpsr},~{flags}"(i64 -1, ptr nonnull getelementptr inbounds (i8, ptr @_ZN19MallocMemorySummary9_snapshotE, i64 1792)) #10, !srcloc !11
  %12 = tail call noundef i64 asm sideeffect "lock xaddq $0,($2)", "=r,0,r,~{cc},~{memory},~{dirflag},~{fpsr},~{flags}"(i64 %9, ptr nonnull getelementptr inbounds (i8, ptr @_ZN19MallocMemorySummary9_snapshotE, i64 1800)) #10, !srcloc !11
  br label %_ZN19MallocMemorySummary11record_freeEm8MEMFLAGS.exit

_ZN19MallocMemorySummary11record_freeEm8MEMFLAGS.exit: ; preds = %_ZN12MallocMemory11record_freeEm.exit.thread.i, %7
  %13 = load i32, ptr @_ZN10MemTracker15_tracking_levelE, align 4
  %14 = icmp eq i32 %13, 3
  br i1 %14, label %15, label %_ZN15MallocSiteTable15deallocation_atEmj.exit

15:                                               ; preds = %_ZN19MallocMemorySummary11record_freeEm8MEMFLAGS.exit
  %.sroa.52.8.extract.shift = lshr i64 %1, 32
  %.sroa.52.8.extract.trunc = trunc nuw i64 %.sroa.52.8.extract.shift to i32
  %16 = tail call noundef ptr @_ZN15MallocSiteTable11malloc_siteEj(i32 noundef %.sroa.52.8.extract.trunc) #10
  %.not.i.not = icmp eq ptr %16, null
  br i1 %.not.i.not, label %_ZN15MallocSiteTable15deallocation_atEmj.exit, label %17

17:                                               ; preds = %15
  %18 = getelementptr inbounds i8, ptr %16, i64 40
  %19 = tail call noundef i64 asm sideeffect "lock xaddq $0,($2)", "=r,0,r,~{cc},~{memory},~{dirflag},~{fpsr},~{flags}"(i64 -1, ptr nonnull %18) #10, !srcloc !11
  br i1 %.not.i.i.i, label %_ZN15MallocSiteTable15deallocation_atEmj.exit, label %20

20:                                               ; preds = %17
  %21 = getelementptr inbounds i8, ptr %16, i64 48
  %22 = sub i64 0, %0
  %23 = tail call noundef i64 asm sideeffect "lock xaddq $0,($2)", "=r,0,r,~{cc},~{memory},~{dirflag},~{fpsr},~{flags}"(i64 %22, ptr nonnull %21) #10, !srcloc !11
  br label %_ZN15MallocSiteTable15deallocation_atEmj.exit

_ZN15MallocSiteTable15deallocation_atEmj.exit:    ; preds = %20, %17, %15, %_ZN19MallocMemorySummary11record_freeEm8MEMFLAGS.exit
  ret void
}